; Function Attrs: nounwind uwtable
define dso_local ptr @ztryrealloc_usable(ptr noundef %ptr, i64 noundef %size, ptr noundef writeonly %usable) local_unnamed_addr #3 {
entry:
  %usable_size = alloca i64, align 8
  store i64 0, ptr %usable_size, align 8
  %call = call fastcc ptr @ztryrealloc_usable_internal(ptr noundef %ptr, i64 noundef %size, ptr noundef nonnull %usable_size)
  %tobool.not = icmp eq ptr %usable, null
  br i1 %tobool.not, label %if.end, label %if.then

if.then:                                          ; preds = %entry
  %0 = load i64, ptr %usable_size, align 8
  store i64 %0, ptr %usable, align 8
  br label %if.end

if.end:                                           ; preds = %if.then, %entry
  ret ptr %call
}